ccopy_reg
_reconstructor
p1
(csklearn.preprocessing.label
LabelEncoder
p2
c__builtin__
object
p3
NtRp4
(dp5
S'classes_'
p6
cnumpy.core.multiarray
_reconstruct
p7
(cnumpy
ndarray
p8
(I0
tS'b'
tRp9
(I1
(I8
tcnumpy
dtype
p10
(S'S6'
I0
I1
tRp11
(I3
S'|'
NNNI6
I1
I0
tbI00
S'0_2\x00\x00\x0015_20\x0025_32\x0038_43\x0048_53\x004_6\x00\x00\x0060_inf8_13\x00\x00'
tbsS'_sklearn_version'
p12
S'0.18'
p13
sb.